; Function Attrs: mustprogress uwtable
define dso_local void @_ZN11flatbuffers12FlatCompiler16LoadBinarySchemaERNS_6ParserERKNSt7__cxx1112basic_stringIcSt11char_traitsIcESaIcEEESA_(ptr noundef nonnull align 8 dereferenceable(64) %0, ptr noundef nonnull align 8 dereferenceable(1920) %1, ptr noundef nonnull align 8 dereferenceable(32) %2, ptr noundef nonnull readonly align 8 captures(none) dereferenceable(32) %3) local_unnamed_addr #0 align 2 personality ptr @__gxx_personality_v0 {
  %5 = alloca %"class.std::__cxx11::basic_string", align 8
  %6 = load ptr, ptr %3, align 8, !tbaa !9
  %7 = getelementptr inbounds nuw i8, ptr %3, i64 8
  %8 = load i64, ptr %7, align 8, !tbaa !31
  %9 = tail call noundef zeroext i1 @_ZN11flatbuffers6Parser11DeserializeEPKhm(ptr noundef nonnull align 8 dereferenceable(1920) %1, ptr noundef %6, i64 noundef %8)
  br i1 %9, label %31, label %10

10:                                               ; preds = %4
  call void @llvm.lifetime.start.p0(i64 32, ptr nonnull %5) #25
  call void @_ZStplIcSt11char_traitsIcESaIcEENSt7__cxx1112basic_stringIT_T0_T1_EEPKS5_RKS8_(ptr dead_on_unwind nonnull writable sret(%"class.std::__cxx11::basic_string") align 8 %5, ptr noundef nonnull @.str, ptr noundef nonnull align 8 dereferenceable(32) %2)
  %11 = getelementptr inbounds nuw i8, ptr %0, i64 56
  %12 = load ptr, ptr %11, align 8, !tbaa !19
  invoke void %12(ptr noundef nonnull align 8 dereferenceable(64) %0, ptr noundef nonnull align 8 dereferenceable(32) %5, i1 noundef zeroext false, i1 noundef zeroext false)
          to label %_ZNK11flatbuffers12FlatCompiler5ErrorERKNSt7__cxx1112basic_stringIcSt11char_traitsIcESaIcEEEbb.exit unwind label %21

_ZNK11flatbuffers12FlatCompiler5ErrorERKNSt7__cxx1112basic_stringIcSt11char_traitsIcESaIcEEEbb.exit: ; preds = %10
  %13 = load ptr, ptr %5, align 8, !tbaa !9
  %14 = getelementptr inbounds nuw i8, ptr %5, i64 16
  %15 = icmp eq ptr %13, %14
  br i1 %15, label %_ZNKSt7__cxx1112basic_stringIcSt11char_traitsIcESaIcEE11_M_is_localEv.exit.thread.i.i, label %_ZNKSt7__cxx1112basic_stringIcSt11char_traitsIcESaIcEE11_M_is_localEv.exit.i.i

_ZNKSt7__cxx1112basic_stringIcSt11char_traitsIcESaIcEE11_M_is_localEv.exit.thread.i.i: ; preds = %_ZNK11flatbuffers12FlatCompiler5ErrorERKNSt7__cxx1112basic_stringIcSt11char_traitsIcESaIcEEEbb.exit
  %16 = getelementptr inbounds nuw i8, ptr %5, i64 8
  %17 = load i64, ptr %16, align 8, !tbaa !31
  %18 = icmp ult i64 %17, 16
  call void @llvm.assume(i1 %18)
  br label %_ZNSt7__cxx1112basic_stringIcSt11char_traitsIcESaIcEED2Ev.exit

_ZNKSt7__cxx1112basic_stringIcSt11char_traitsIcESaIcEE11_M_is_localEv.exit.i.i: ; preds = %_ZNK11flatbuffers12FlatCompiler5ErrorERKNSt7__cxx1112basic_stringIcSt11char_traitsIcESaIcEEEbb.exit
  %19 = load i64, ptr %14, align 8, !tbaa !33
  %20 = add i64 %19, 1
  call void @_ZdlPvm(ptr noundef %13, i64 noundef %20) #28
  br label %_ZNSt7__cxx1112basic_stringIcSt11char_traitsIcESaIcEED2Ev.exit

_ZNSt7__cxx1112basic_stringIcSt11char_traitsIcESaIcEED2Ev.exit: ; preds = %_ZNKSt7__cxx1112basic_stringIcSt11char_traitsIcESaIcEE11_M_is_localEv.exit.thread.i.i, %_ZNKSt7__cxx1112basic_stringIcSt11char_traitsIcESaIcEE11_M_is_localEv.exit.i.i
  call void @llvm.lifetime.end.p0(i64 32, ptr nonnull %5) #25
  br label %31

21:                                               ; preds = %10
  %22 = landingpad { ptr, i32 }
          cleanup
  %23 = load ptr, ptr %5, align 8, !tbaa !9
  %24 = getelementptr inbounds nuw i8, ptr %5, i64 16
  %25 = icmp eq ptr %23, %24
  br i1 %25, label %_ZNKSt7__cxx1112basic_stringIcSt11char_traitsIcESaIcEE11_M_is_localEv.exit.thread.i.i7, label %_ZNKSt7__cxx1112basic_stringIcSt11char_traitsIcESaIcEE11_M_is_localEv.exit.i.i6

_ZNKSt7__cxx1112basic_stringIcSt11char_traitsIcESaIcEE11_M_is_localEv.exit.thread.i.i7: ; preds = %21
  %26 = getelementptr inbounds nuw i8, ptr %5, i64 8
  %27 = load i64, ptr %26, align 8, !tbaa !31
  %28 = icmp ult i64 %27, 16
  call void @llvm.assume(i1 %28)
  br label %_ZNSt7__cxx1112basic_stringIcSt11char_traitsIcESaIcEED2Ev.exit8

_ZNKSt7__cxx1112basic_stringIcSt11char_traitsIcESaIcEE11_M_is_localEv.exit.i.i6: ; preds = %21
  %29 = load i64, ptr %24, align 8, !tbaa !33
  %30 = add i64 %29, 1
  call void @_ZdlPvm(ptr noundef %23, i64 noundef %30) #28
  br label %_ZNSt7__cxx1112basic_stringIcSt11char_traitsIcESaIcEED2Ev.exit8

_ZNSt7__cxx1112basic_stringIcSt11char_traitsIcESaIcEED2Ev.exit8: ; preds = %_ZNKSt7__cxx1112basic_stringIcSt11char_traitsIcESaIcEE11_M_is_localEv.exit.thread.i.i7, %_ZNKSt7__cxx1112basic_stringIcSt11char_traitsIcESaIcEE11_M_is_localEv.exit.i.i6
  call void @llvm.lifetime.end.p0(i64 32, ptr nonnull %5) #25
  resume { ptr, i32 } %22

31:                                               ; preds = %_ZNSt7__cxx1112basic_stringIcSt11char_traitsIcESaIcEED2Ev.exit, %4
  ret void
}